target datalayout = "e-m:e-p270:32:32-p271:32:32-p272:64:64-i64:64-i128:128-f80:128-n8:16:32:64-S128"
target triple = "x86_64-pc-linux-gnu"

%"class.icu_77::GregorianCalendar" = type <{ %"class.icu_77::Calendar", double, i32, [4 x i8], double, i32, i8, i8, [2 x i8] }>
%"class.icu_77::Calendar" = type <{ %"class.icu_77::UObject", [24 x i32], [24 x i8], i8, [7 x i8], double, ptr, i8, i16, i8, i32, i32, i32, i8, i8, i16, [4 x i8], ptr, ptr }>
%"class.icu_77::UObject" = type { ptr }

; Function Attrs: mustprogress uwtable
define noundef nonnull align 8 dereferenceable(222) ptr @_ZN6icu_7717GregorianCalendaraSERKS0_(ptr noundef nonnull align 8 dereferenceable(222) %0, ptr noundef nonnull align 8 dereferenceable(222) %1) #1 align 2 {
  %3 = alloca ptr, align 8
  %4 = alloca ptr, align 8
  store ptr %0, ptr %3, align 8, !tbaa !3
  store ptr %1, ptr %4, align 8, !tbaa !3
  %5 = load ptr, ptr %3, align 8
  %6 = load ptr, ptr %4, align 8, !tbaa !3
  %7 = icmp ne ptr %5, %6
  br i1 %7, label %8, label %27

8:                                                ; preds = %2
  %9 = load ptr, ptr %4, align 8, !tbaa !3
  %10 = call noundef nonnull align 8 dereferenceable(192) ptr @_ZN6icu_778CalendaraSERKS0_(ptr noundef nonnull align 8 dereferenceable(192) %5, ptr noundef nonnull align 8 dereferenceable(192) %9)
  %11 = load ptr, ptr %4, align 8, !tbaa !3
  %12 = getelementptr inbounds nuw %"class.icu_77::GregorianCalendar", ptr %11, i32 0, i32 1
  %13 = load double, ptr %12, align 8, !tbaa !11
  %14 = getelementptr inbounds nuw %"class.icu_77::GregorianCalendar", ptr %5, i32 0, i32 1
  store double %13, ptr %14, align 8, !tbaa !11
  %15 = load ptr, ptr %4, align 8, !tbaa !3
  %16 = getelementptr inbounds nuw %"class.icu_77::GregorianCalendar", ptr %15, i32 0, i32 4
  %17 = load double, ptr %16, align 8, !tbaa !24
  %18 = getelementptr inbounds nuw %"class.icu_77::GregorianCalendar", ptr %5, i32 0, i32 4
  store double %17, ptr %18, align 8, !tbaa !24
  %19 = load ptr, ptr %4, align 8, !tbaa !3
  %20 = getelementptr inbounds nuw %"class.icu_77::GregorianCalendar", ptr %19, i32 0, i32 5
  %21 = load i32, ptr %20, align 8, !tbaa !25
  %22 = getelementptr inbounds nuw %"class.icu_77::GregorianCalendar", ptr %5, i32 0, i32 5
  store i32 %21, ptr %22, align 8, !tbaa !25
  %23 = load ptr, ptr %4, align 8, !tbaa !3
  %24 = getelementptr inbounds nuw %"class.icu_77::GregorianCalendar", ptr %23, i32 0, i32 2
  %25 = load i32, ptr %24, align 8, !tbaa !23
  %26 = getelementptr inbounds nuw %"class.icu_77::GregorianCalendar", ptr %5, i32 0, i32 2
  store i32 %25, ptr %26, align 8, !tbaa !23
  br label %27

27:                                               ; preds = %8, %2
  ret ptr %5
}