; Function Attrs: mustprogress uwtable
define noundef nonnull align 8 dereferenceable(222) ptr @_ZN6icu_7717GregorianCalendaraSERKS0_(ptr noundef nonnull returned align 8 dereferenceable(222) %0, ptr noundef nonnull align 8 dereferenceable(222) %1) local_unnamed_addr #1 align 2 {
  %.not = icmp eq ptr %0, %1
  br i1 %.not, label %17, label %3

3:                                                ; preds = %2
  %4 = tail call noundef nonnull align 8 dereferenceable(192) ptr @_ZN6icu_778CalendaraSERKS0_(ptr noundef nonnull align 8 dereferenceable(192) %0, ptr noundef nonnull align 8 dereferenceable(192) %1)
  %5 = getelementptr inbounds nuw i8, ptr %1, i64 192
  %6 = load double, ptr %5, align 8, !tbaa !6
  %7 = getelementptr inbounds nuw i8, ptr %0, i64 192
  store double %6, ptr %7, align 8, !tbaa !6
  %8 = getelementptr inbounds nuw i8, ptr %1, i64 208
  %9 = load double, ptr %8, align 8, !tbaa !21
  %10 = getelementptr inbounds nuw i8, ptr %0, i64 208
  store double %9, ptr %10, align 8, !tbaa !21
  %11 = getelementptr inbounds nuw i8, ptr %1, i64 216
  %12 = load i32, ptr %11, align 8, !tbaa !22
  %13 = getelementptr inbounds nuw i8, ptr %0, i64 216
  store i32 %12, ptr %13, align 8, !tbaa !22
  %14 = getelementptr inbounds nuw i8, ptr %1, i64 200
  %15 = load i32, ptr %14, align 8, !tbaa !20
  %16 = getelementptr inbounds nuw i8, ptr %0, i64 200
  store i32 %15, ptr %16, align 8, !tbaa !20
  br label %17

17:                                               ; preds = %3, %2
  ret ptr %0
}